Certificate Request:
    Data:
        Version: 1 (0x0)
        Subject: C = CA, ST = Some-State, O = Internet Widgits Pty Ltd
        Subject Public Key Info:
            Public Key Algorithm: rsaEncryption
                RSA Public-Key: (2048 bit)
                Modulus:
                    00:92:53:db:2b:18:f9:51:21:58:57:5c:71:88:b9:
                    89:9b:e1:68:af:3c:e9:8b:d0:31:b0:b1:b9:da:a3:
                    04:7f:f9:95:a7:34:86:6f:fe:d2:34:8a:76:34:c3:
                    ea:54:dc:ac:88:38:83:fa:72:ad:e2:ce:d6:0c:21:
                    2d:31:94:dc:e6:ba:72:03:75:9f:39:e0:e0:20:d9:
                    a6:0e:c4:ff:36:41:d4:d6:eb:57:ac:9c:d8:fd:f2:
                    eb:5c:44:f9:13:c9:11:c3:ec:58:a6:fc:61:2b:98:
                    f0:45:93:3c:d5:c5:65:2f:54:38:b3:2a:3e:97:4b:
                    b4:79:29:52:77:12:cb:c5:12:57:5b:09:7a:45:0a:
                    74:10:e0:27:3f:9d:10:88:7a:7e:bb:b8:1c:4e:4d:
                    1c:c1:91:6e:62:84:1c:64:08:52:4d:b9:c6:be:ff:
                    dd:6a:0d:d7:bb:f5:35:73:97:a2:58:6a:43:11:ef:
                    80:89:f2:90:65:d6:1c:71:fa:d4:ce:af:30:04:aa:
                    e1:b8:5f:b4:b1:67:91:e9:d5:eb:72:6a:d5:b0:5e:
                    8f:7e:37:1a:37:1b:aa:5a:71:d6:7d:f1:8a:6b:3c:
                    24:94:b2:5a:21:6e:7e:e0:6a:36:8d:eb:bd:b9:68:
                    85:06:65:e4:2f:e1:0f:86:7c:b4:c1:ab:e4:57:60:
                    0d:8f
                Exponent: 65537 (0x10001)
        Attributes:
            a0:00
    Signature Algorithm: sha256WithRSAEncryption
         74:d4:b1:1f:7a:dc:66:22:71:75:b6:79:75:5a:91:d6:e4:7c:
         49:35:d9:a8:8b:3b:da:85:e8:5f:e5:3f:8e:87:b9:52:1b:67:
         13:c9:05:49:2a:9b:5d:f5:28:a9:9a:87:4f:51:83:22:1e:8b:
         10:9a:89:17:13:ff:67:c0:b9:db:35:b6:be:d2:a5:ef:1a:7d:
         79:f4:13:c4:a6:a9:62:ae:08:96:5b:9c:32:08:12:21:e1:1f:
         1d:06:30:67:9b:f9:72:55:bd:c1:95:ae:c4:1f:e4:a7:1c:ed:
         a5:3e:d3:e2:3b:7d:ee:d1:2f:dc:39:f8:13:df:19:78:0e:fa:
         a0:4b:c6:86:7d:a5:c2:4a:25:82:e9:ad:ba:3c:54:ba:2d:1c:
         02:85:75:9b:c8:9f:04:0a:f4:3d:d9:07:0c:57:44:ae:69:3c:
         b5:67:a1:c1:92:6c:b0:cd:3b:1b:17:ac:13:ff:9d:93:d3:42:
         76:33:0b:14:17:8a:2f:37:e1:79:88:ff:76:18:79:6e:b1:b8:
         6c:e7:a4:21:8c:eb:55:20:67:a4:2c:fc:ae:48:39:26:d4:32:
         57:73:4c:31:de:b6:87:51:fa:68:59:a7:f6:94:88:c3:4f:c5:
         fb:88:bd:be:06:3b:2d:62:cd:51:8b:50:ca:59:00:92:59:16:
         91:f4:6f:b0
-----BEGIN CERTIFICATE REQUEST-----
MIICijCCAXICAQAwRTELMAkGA1UEBhMCQ0ExEzARBgNVBAgMClNvbWUtU3RhdGUx
ITAfBgNVBAoMGEludGVybmV0IFdpZGdpdHMgUHR5IEx0ZDCCASIwDQYJKoZIhvcN
AQEBBQADggEPADCCAQoCggEBAJJT2ysY+VEhWFdccYi5iZvhaK886YvQMbCxudqj
BH/5lac0hm/+0jSKdjTD6lTcrIg4g/pyreLO1gwhLTGU3Oa6cgN1nzng4CDZpg7E
/zZB1NbrV6yc2P3y61xE+RPJEcPsWKb8YSuY8EWTPNXFZS9UOLMqPpdLtHkpUncS
y8USV1sJekUKdBDgJz+dEIh6fru4HE5NHMGRbmKEHGQIUk25xr7/3WoN17v1NXOX
olhqQxHvgInykGXWHHH61M6vMASq4bhftLFnkenV63Jq1bBej343Gjcbqlpx1n3x
ims8JJSyWiFufuBqNo3rvblohQZl5C/hD4Z8tMGr5FdgDY8CAwEAAaAAMA0GCSqG
SIb3DQEBCwUAA4IBAQB01LEfetxmInF1tnl1WpHW5HxJNdmoizvahehf5T+Oh7lS
G2cTyQVJKptd9SipmodPUYMiHosQmokXE/9nwLnbNba+0qXvGn159BPEpqlirgiW
W5wyCBIh4R8dBjBnm/lyVb3Bla7EH+SnHO2lPtPiO33u0S/cOfgT3xl4DvqgS8aG
faXCSiWC6a26PFS6LRwChXWbyJ8ECvQ92QcMV0SuaTy1Z6HBkmywzTsbF6wT/52T
00J2MwsUF4ovN+F5iP92GHlusbhs56QhjOtVIGekLPyuSDkm1DJXc0wx3raHUfpo
Waf2lIjDT8X7iL2+BjstYs1Ri1DKWQCSWRaR9G+w
-----END CERTIFICATE REQUEST-----
